target datalayout = "e-m:e-p270:32:32-p271:32:32-p272:64:64-i64:64-i128:128-f80:128-n8:16:32:64-S128"
target triple = "x86_64-pc-linux-gnu"

%"struct.std::_Rb_tree_header" = type { %"struct.std::_Rb_tree_node_base", i64 }
%"struct.std::_Rb_tree_node_base" = type { i32, ptr, ptr, ptr }
%"class.std::basic_ostream" = type { ptr, %"class.std::basic_ios" }
%"class.std::basic_ios" = type { %"class.std::ios_base", ptr, i8, i8, ptr, ptr, ptr, ptr }
%"class.std::ios_base" = type { ptr, i64, i64, i32, i32, i32, ptr, %"struct.std::ios_base::_Words", [8 x %"struct.std::ios_base::_Words"], i32, ptr, %"class.std::locale" }
%"struct.std::ios_base::_Words" = type { ptr, i64 }
%"class.std::locale" = type { ptr }
%"class.std::__cxx11::basic_string" = type { %"struct.std::__cxx11::basic_string<char>::_Alloc_hider", i64, %union.anon }
%"struct.std::__cxx11::basic_string<char>::_Alloc_hider" = type { ptr }
%union.anon = type { i64, [8 x i8] }
%"struct.jsonnet::internal::(anonymous namespace)::Value" = type { i32, %union.anon.17 }
%union.anon.17 = type { ptr }
%"class.jsonnet::internal::(anonymous namespace)::Stack" = type { ptr, i32, i32, %"class.std::vector.18" }
%"class.std::vector.18" = type { %"struct.std::_Vector_base.19" }
%"struct.std::_Vector_base.19" = type { %"struct.std::_Vector_base<jsonnet::internal::(anonymous namespace)::Frame, std::allocator<jsonnet::internal::(anonymous namespace)::Frame>>::_Vector_impl" }
%"struct.std::_Vector_base<jsonnet::internal::(anonymous namespace)::Frame, std::allocator<jsonnet::internal::(anonymous namespace)::Frame>>::_Vector_impl" = type { %"struct.std::_Vector_base<jsonnet::internal::(anonymous namespace)::Frame, std::allocator<jsonnet::internal::(anonymous namespace)::Frame>>::_Vector_impl_data" }
%"struct.std::_Vector_base<jsonnet::internal::(anonymous namespace)::Frame, std::allocator<jsonnet::internal::(anonymous namespace)::Frame>>::_Vector_impl_data" = type { ptr, ptr, ptr }
%"class.std::__cxx11::basic_string.54" = type { %"struct.std::__cxx11::basic_string<char32_t>::_Alloc_hider", i64, %union.anon.58 }
%"struct.std::__cxx11::basic_string<char32_t>::_Alloc_hider" = type { ptr }
%union.anon.58 = type { i64, [8 x i8] }
%"struct.jsonnet::internal::LocationRange" = type { %"class.std::__cxx11::basic_string", %"struct.jsonnet::internal::Location", %"struct.jsonnet::internal::Location" }
%"struct.jsonnet::internal::Location" = type { i64, i64 }
%"class.std::map.119" = type { %"class.std::_Rb_tree.120" }
%"class.std::_Rb_tree.120" = type { %"struct.std::_Rb_tree<const jsonnet::internal::Identifier *, std::pair<const jsonnet::internal::Identifier *const, jsonnet::internal::(anonymous namespace)::HeapThunk *>, std::_Select1st<std::pair<const jsonnet::internal::Identifier *const, jsonnet::internal::(anonymous namespace)::HeapThunk *>>, std::less<const jsonnet::internal::Identifier *>>::_Rb_tree_impl" }
%"struct.std::_Rb_tree<const jsonnet::internal::Identifier *, std::pair<const jsonnet::internal::Identifier *const, jsonnet::internal::(anonymous namespace)::HeapThunk *>, std::_Select1st<std::pair<const jsonnet::internal::Identifier *const, jsonnet::internal::(anonymous namespace)::HeapThunk *>>, std::less<const jsonnet::internal::Identifier *>>::_Rb_tree_impl" = type { [8 x i8], %"struct.std::_Rb_tree_header" }
%"class.std::vector.130" = type { %"struct.std::_Vector_base.131" }
%"struct.std::_Vector_base.131" = type { %"struct.std::_Vector_base<jsonnet::internal::(anonymous namespace)::HeapThunk *, std::allocator<jsonnet::internal::(anonymous namespace)::HeapThunk *>>::_Vector_impl" }
%"struct.std::_Vector_base<jsonnet::internal::(anonymous namespace)::HeapThunk *, std::allocator<jsonnet::internal::(anonymous namespace)::HeapThunk *>>::_Vector_impl" = type { %"struct.std::_Vector_base<jsonnet::internal::(anonymous namespace)::HeapThunk *, std::allocator<jsonnet::internal::(anonymous namespace)::HeapThunk *>>::_Vector_impl_data" }
%"struct.std::_Vector_base<jsonnet::internal::(anonymous namespace)::HeapThunk *, std::allocator<jsonnet::internal::(anonymous namespace)::HeapThunk *>>::_Vector_impl_data" = type { ptr, ptr, ptr }
%"class.std::map.125" = type { %"class.std::_Rb_tree.126" }
%"class.std::_Rb_tree.126" = type { %"struct.std::_Rb_tree<const jsonnet::internal::Identifier *, std::pair<const jsonnet::internal::Identifier *const, jsonnet::internal::(anonymous namespace)::HeapSimpleObject::Field>, std::_Select1st<std::pair<const jsonnet::internal::Identifier *const, jsonnet::internal::(anonymous namespace)::HeapSimpleObject::Field>>, std::less<const jsonnet::internal::Identifier *>>::_Rb_tree_impl" }
%"struct.std::_Rb_tree<const jsonnet::internal::Identifier *, std::pair<const jsonnet::internal::Identifier *const, jsonnet::internal::(anonymous namespace)::HeapSimpleObject::Field>, std::_Select1st<std::pair<const jsonnet::internal::Identifier *const, jsonnet::internal::(anonymous namespace)::HeapSimpleObject::Field>>, std::less<const jsonnet::internal::Identifier *>>::_Rb_tree_impl" = type { [8 x i8], %"struct.std::_Rb_tree_header" }
%"class.__gnu_cxx::__normal_iterator" = type { ptr }
%"struct.jsonnet::internal::(anonymous namespace)::Frame" = type { i32, ptr, %"struct.jsonnet::internal::LocationRange", i8, %"struct.jsonnet::internal::(anonymous namespace)::Value", %"struct.jsonnet::internal::(anonymous namespace)::Value", %"class.__gnu_cxx::__normal_iterator", %"class.std::map.125", i32, %"class.std::map.119", %"class.std::vector.130", %"class.std::__cxx11::basic_string.54", i8, %"class.std::__cxx11::basic_string", ptr, ptr, i32, %"class.std::map.119" }

@_ZSt4cout = external global %"class.std::basic_ostream", align 8
@.str.73 = private unnamed_addr constant [7 x i8] c"stack[\00", align 1
@.str.74 = private unnamed_addr constant [5 x i8] c"] = \00", align 1
@.str.75 = private unnamed_addr constant [3 x i8] c" (\00", align 1
@.str.76 = private unnamed_addr constant [2 x i8] c")\00", align 1

; Function Attrs: inlinehint mustprogress nounwind uwtable
define linkonce_odr noundef i32 @_ZStorSt12_Ios_IostateS_(i32 noundef %0, i32 noundef %1) #8 comdat {
  %3 = alloca i32, align 4
  %4 = alloca i32, align 4
  store i32 %0, ptr %3, align 4, !tbaa !643
  store i32 %1, ptr %4, align 4, !tbaa !643
  %5 = load i32, ptr %3, align 4, !tbaa !643
  %6 = load i32, ptr %4, align 4, !tbaa !643
  %7 = or i32 %5, %6
  ret i32 %7
}

; Function Attrs: mustprogress nounwind uwtable
define available_externally noundef i32 @_ZNKSt9basic_iosIcSt11char_traitsIcEE7rdstateEv(ptr noundef nonnull align 8 dereferenceable(264) %0) #5 align 2 {
  %2 = alloca ptr, align 8
  store ptr %0, ptr %2, align 8, !tbaa !641
  %3 = load ptr, ptr %2, align 8
  %4 = getelementptr inbounds nuw %"class.std::ios_base", ptr %3, i32 0, i32 5
  %5 = load i32, ptr %4, align 8, !tbaa !645
  ret i32 %5
}

; Function Attrs: mustprogress nounwind uwtable
define linkonce_odr noundef i64 @_ZNSt11char_traitsIcE6lengthEPKc(ptr noundef %0) #5 comdat align 2 {
  %2 = alloca ptr, align 8
  store ptr %0, ptr %2, align 8, !tbaa !357
  %3 = load ptr, ptr %2, align 8, !tbaa !357
  %4 = call i64 @strlen(ptr noundef %3) #3
  ret i64 %4
}

; Function Attrs: mustprogress uwtable
define available_externally void @_ZNSt9basic_iosIcSt11char_traitsIcEE8setstateESt12_Ios_Iostate(ptr noundef nonnull align 8 dereferenceable(264) %0, i32 noundef %1) #4 align 2 {
  %3 = alloca ptr, align 8
  %4 = alloca i32, align 4
  store ptr %0, ptr %3, align 8, !tbaa !641
  store i32 %1, ptr %4, align 4, !tbaa !643
  %5 = load ptr, ptr %3, align 8
  %6 = call noundef i32 @_ZNKSt9basic_iosIcSt11char_traitsIcEE7rdstateEv(ptr noundef nonnull align 8 dereferenceable(264) %5)
  %7 = load i32, ptr %4, align 4, !tbaa !643
  %8 = call noundef i32 @_ZStorSt12_Ios_IostateS_(i32 noundef %6, i32 noundef %7)
  call void @_ZNSt9basic_iosIcSt11char_traitsIcEE5clearESt12_Ios_Iostate(ptr noundef nonnull align 8 dereferenceable(264) %5, i32 noundef %8)
  ret void
}

; Function Attrs: mustprogress uwtable
define available_externally noundef nonnull align 8 dereferenceable(8) ptr @_ZNSolsEPFRSoS_E(ptr noundef nonnull align 8 dereferenceable(8) %0, ptr noundef %1) #4 align 2 {
  %3 = alloca ptr, align 8
  %4 = alloca ptr, align 8
  store ptr %0, ptr %3, align 8, !tbaa !636
  store ptr %1, ptr %4, align 8, !tbaa !31
  %5 = load ptr, ptr %3, align 8
  %6 = load ptr, ptr %4, align 8, !tbaa !31
  %7 = call noundef nonnull align 8 dereferenceable(8) ptr %6(ptr noundef nonnull align 8 dereferenceable(8) %5)
  ret ptr %7
}

; Function Attrs: mustprogress nounwind uwtable
define internal noundef nonnull align 8 dereferenceable(400) ptr @_ZNSt6vectorIN7jsonnet8internal12_GLOBAL__N_15FrameESaIS3_EEixEm(ptr noundef nonnull align 8 dereferenceable(24) %0, i64 noundef %1) #5 align 2 {
  %3 = alloca ptr, align 8
  %4 = alloca i64, align 8
  store ptr %0, ptr %3, align 8, !tbaa !620
  store i64 %1, ptr %4, align 8, !tbaa !271
  %5 = load ptr, ptr %3, align 8
  %6 = getelementptr inbounds nuw %"struct.std::_Vector_base.19", ptr %5, i32 0, i32 0
  %7 = getelementptr inbounds nuw %"struct.std::_Vector_base<jsonnet::internal::(anonymous namespace)::Frame, std::allocator<jsonnet::internal::(anonymous namespace)::Frame>>::_Vector_impl_data", ptr %6, i32 0, i32 0
  %8 = load ptr, ptr %7, align 8, !tbaa !631
  %9 = load i64, ptr %4, align 8, !tbaa !271
  %10 = getelementptr inbounds nuw %"struct.jsonnet::internal::(anonymous namespace)::Frame", ptr %8, i64 %9
  ret ptr %10
}

; Function Attrs: mustprogress uwtable
define available_externally noundef nonnull align 8 dereferenceable(8) ptr @_ZNSolsEm(ptr noundef nonnull align 8 dereferenceable(8) %0, i64 noundef %1) #4 align 2 {
  %3 = alloca ptr, align 8
  %4 = alloca i64, align 8
  store ptr %0, ptr %3, align 8, !tbaa !636
  store i64 %1, ptr %4, align 8, !tbaa !271
  %5 = load ptr, ptr %3, align 8
  %6 = load i64, ptr %4, align 8, !tbaa !271
  %7 = call noundef nonnull align 8 dereferenceable(8) ptr @_ZNSo9_M_insertImEERSoT_(ptr noundef nonnull align 8 dereferenceable(8) %5, i64 noundef %6)
  ret ptr %7
}

; Function Attrs: inlinehint mustprogress uwtable
define available_externally noundef nonnull align 8 dereferenceable(8) ptr @_ZStlsISt11char_traitsIcEERSt13basic_ostreamIcT_ES5_PKc(ptr noundef nonnull align 8 dereferenceable(8) %0, ptr noundef %1) #7 {
  %3 = alloca ptr, align 8
  %4 = alloca ptr, align 8
  store ptr %0, ptr %3, align 8, !tbaa !636
  store ptr %1, ptr %4, align 8, !tbaa !357
  %5 = load ptr, ptr %4, align 8, !tbaa !357
  %6 = icmp ne ptr %5, null
  br i1 %6, label %13, label %7

7:                                                ; preds = %2
  %8 = load ptr, ptr %3, align 8, !tbaa !636
  %9 = load ptr, ptr %8, align 8, !tbaa !310
  %10 = getelementptr i8, ptr %9, i64 -24
  %11 = load i64, ptr %10, align 8
  %12 = getelementptr inbounds i8, ptr %8, i64 %11
  call void @_ZNSt9basic_iosIcSt11char_traitsIcEE8setstateESt12_Ios_Iostate(ptr noundef nonnull align 8 dereferenceable(264) %12, i32 noundef 1)
  br label %19

13:                                               ; preds = %2
  %14 = load ptr, ptr %3, align 8, !tbaa !636
  %15 = load ptr, ptr %4, align 8, !tbaa !357
  %16 = load ptr, ptr %4, align 8, !tbaa !357
  %17 = call noundef i64 @_ZNSt11char_traitsIcE6lengthEPKc(ptr noundef %16)
  %18 = call noundef nonnull align 8 dereferenceable(8) ptr @_ZSt16__ostream_insertIcSt11char_traitsIcEERSt13basic_ostreamIT_T0_ES6_PKS3_l(ptr noundef nonnull align 8 dereferenceable(8) %14, ptr noundef %15, i64 noundef %17)
  br label %19

19:                                               ; preds = %13, %7
  %20 = load ptr, ptr %3, align 8, !tbaa !636
  ret ptr %20
}

; Function Attrs: mustprogress nounwind uwtable
define internal noundef i64 @_ZNKSt6vectorIN7jsonnet8internal12_GLOBAL__N_15FrameESaIS3_EE4sizeEv(ptr noundef nonnull align 8 dereferenceable(24) %0) #5 align 2 {
  %2 = alloca ptr, align 8
  store ptr %0, ptr %2, align 8, !tbaa !620
  %3 = load ptr, ptr %2, align 8
  %4 = getelementptr inbounds nuw %"struct.std::_Vector_base.19", ptr %3, i32 0, i32 0
  %5 = getelementptr inbounds nuw %"struct.std::_Vector_base<jsonnet::internal::(anonymous namespace)::Frame, std::allocator<jsonnet::internal::(anonymous namespace)::Frame>>::_Vector_impl_data", ptr %4, i32 0, i32 1
  %6 = load ptr, ptr %5, align 8, !tbaa !632
  %7 = getelementptr inbounds nuw %"struct.std::_Vector_base.19", ptr %3, i32 0, i32 0
  %8 = getelementptr inbounds nuw %"struct.std::_Vector_base<jsonnet::internal::(anonymous namespace)::Frame, std::allocator<jsonnet::internal::(anonymous namespace)::Frame>>::_Vector_impl_data", ptr %7, i32 0, i32 0
  %9 = load ptr, ptr %8, align 8, !tbaa !631
  %10 = ptrtoint ptr %6 to i64
  %11 = ptrtoint ptr %9 to i64
  %12 = sub i64 %10, %11
  %13 = sdiv exact i64 %12, 400
  ret i64 %13
}

; Function Attrs: mustprogress uwtable
define internal void @_ZN7jsonnet8internal12_GLOBAL__N_15Stack4dumpEv(ptr noundef nonnull align 8 dereferenceable(40) %0) unnamed_addr #4 align 2 {
  %2 = alloca ptr, align 8
  %3 = alloca i64, align 8
  store ptr %0, ptr %2, align 8, !tbaa !551
  %4 = load ptr, ptr %2, align 8
  call void @llvm.lifetime.start.p0(i64 8, ptr %3) #3
  store i64 0, ptr %3, align 8, !tbaa !271
  br label %5

5:                                                ; preds = %30, %1
  %6 = load i64, ptr %3, align 8, !tbaa !271
  %7 = getelementptr inbounds nuw %"class.jsonnet::internal::(anonymous namespace)::Stack", ptr %4, i32 0, i32 3
  %8 = call noundef i64 @_ZNKSt6vectorIN7jsonnet8internal12_GLOBAL__N_15FrameESaIS3_EE4sizeEv(ptr noundef nonnull align 8 dereferenceable(24) %7) #3
  %9 = icmp ult i64 %6, %8
  br i1 %9, label %11, label %10

10:                                               ; preds = %5
  call void @llvm.lifetime.end.p0(i64 8, ptr %3) #3
  br label %33

11:                                               ; preds = %5
  %12 = call noundef nonnull align 8 dereferenceable(8) ptr @_ZStlsISt11char_traitsIcEERSt13basic_ostreamIcT_ES5_PKc(ptr noundef nonnull align 8 dereferenceable(8) @_ZSt4cout, ptr noundef @.str.73)
  %13 = load i64, ptr %3, align 8, !tbaa !271
  %14 = call noundef nonnull align 8 dereferenceable(8) ptr @_ZNSolsEm(ptr noundef nonnull align 8 dereferenceable(8) %12, i64 noundef %13)
  %15 = call noundef nonnull align 8 dereferenceable(8) ptr @_ZStlsISt11char_traitsIcEERSt13basic_ostreamIcT_ES5_PKc(ptr noundef nonnull align 8 dereferenceable(8) %14, ptr noundef @.str.74)
  %16 = getelementptr inbounds nuw %"class.jsonnet::internal::(anonymous namespace)::Stack", ptr %4, i32 0, i32 3
  %17 = load i64, ptr %3, align 8, !tbaa !271
  %18 = call noundef nonnull align 8 dereferenceable(400) ptr @_ZNSt6vectorIN7jsonnet8internal12_GLOBAL__N_15FrameESaIS3_EEixEm(ptr noundef nonnull align 8 dereferenceable(24) %16, i64 noundef %17) #3
  %19 = getelementptr inbounds nuw %"struct.jsonnet::internal::(anonymous namespace)::Frame", ptr %18, i32 0, i32 2
  %20 = call noundef nonnull align 8 dereferenceable(8) ptr @_ZN7jsonnet8internallsERSoRKNS0_13LocationRangeE(ptr noundef nonnull align 8 dereferenceable(8) %15, ptr noundef nonnull align 8 dereferenceable(64) %19)
  %21 = call noundef nonnull align 8 dereferenceable(8) ptr @_ZStlsISt11char_traitsIcEERSt13basic_ostreamIcT_ES5_PKc(ptr noundef nonnull align 8 dereferenceable(8) %20, ptr noundef @.str.75)
  %22 = getelementptr inbounds nuw %"class.jsonnet::internal::(anonymous namespace)::Stack", ptr %4, i32 0, i32 3
  %23 = load i64, ptr %3, align 8, !tbaa !271
  %24 = call noundef nonnull align 8 dereferenceable(400) ptr @_ZNSt6vectorIN7jsonnet8internal12_GLOBAL__N_15FrameESaIS3_EEixEm(ptr noundef nonnull align 8 dereferenceable(24) %22, i64 noundef %23) #3
  %25 = getelementptr inbounds nuw %"struct.jsonnet::internal::(anonymous namespace)::Frame", ptr %24, i32 0, i32 0
  %26 = load i32, ptr %25, align 8, !tbaa !249
  %27 = call noundef nonnull align 8 dereferenceable(8) ptr @_ZNSolsEi(ptr noundef nonnull align 8 dereferenceable(8) %21, i32 noundef %26)
  %28 = call noundef nonnull align 8 dereferenceable(8) ptr @_ZStlsISt11char_traitsIcEERSt13basic_ostreamIcT_ES5_PKc(ptr noundef nonnull align 8 dereferenceable(8) %27, ptr noundef @.str.76)
  %29 = call noundef nonnull align 8 dereferenceable(8) ptr @_ZNSolsEPFRSoS_E(ptr noundef nonnull align 8 dereferenceable(8) %28, ptr noundef @_ZSt4endlIcSt11char_traitsIcEERSt13basic_ostreamIT_T0_ES6_)
  br label %30

30:                                               ; preds = %11
  %31 = load i64, ptr %3, align 8, !tbaa !271
  %32 = add i64 %31, 1
  store i64 %32, ptr %3, align 8, !tbaa !271
  br label %5, !llvm.loop !622

33:                                               ; preds = %10
  %34 = call noundef nonnull align 8 dereferenceable(8) ptr @_ZNSolsEPFRSoS_E(ptr noundef nonnull align 8 dereferenceable(8) @_ZSt4cout, ptr noundef @_ZSt4endlIcSt11char_traitsIcEERSt13basic_ostreamIT_T0_ES6_)
  ret void
}