; Function Attrs: mustprogress uwtable
define internal void @_ZN7jsonnet8internal12_GLOBAL__N_15Stack4dumpEv(ptr noundef nonnull readonly align 8 captures(none) dereferenceable(40) %0) unnamed_addr #4 align 2 {
  %2 = getelementptr inbounds nuw i8, ptr %0, i64 16
  %3 = getelementptr inbounds nuw i8, ptr %0, i64 24
  %.val13 = load ptr, ptr %2, align 8, !tbaa !200
  %.val514 = load ptr, ptr %3, align 8, !tbaa !201
  %.not = icmp eq ptr %.val514, %.val13
  br i1 %.not, label %._crit_edge, label %.lr.ph

._crit_edge:                                      ; preds = %_ZSt4endlIcSt11char_traitsIcEERSt13basic_ostreamIT_T0_ES6_.exit12, %1
  %4 = load ptr, ptr @_ZSt4cout, align 8, !tbaa !43
  %5 = getelementptr i8, ptr %4, i64 -24
  %6 = load i64, ptr %5, align 8
  %7 = getelementptr inbounds i8, ptr @_ZSt4cout, i64 %6
  %8 = getelementptr inbounds nuw i8, ptr %7, i64 240
  %9 = load ptr, ptr %8, align 8, !tbaa !460
  %.not.i.i.i = icmp eq ptr %9, null
  br i1 %.not.i.i.i, label %10, label %_ZSt13__check_facetISt5ctypeIcEERKT_PS3_.exit.i.i

10:                                               ; preds = %._crit_edge
  tail call void @_ZSt16__throw_bad_castv() #41
  unreachable

_ZSt13__check_facetISt5ctypeIcEERKT_PS3_.exit.i.i: ; preds = %._crit_edge
  %11 = getelementptr inbounds nuw i8, ptr %9, i64 56
  %12 = load i8, ptr %11, align 8, !tbaa !475
  %.not.i1.i.i = icmp eq i8 %12, 0
  br i1 %.not.i1.i.i, label %16, label %13

13:                                               ; preds = %_ZSt13__check_facetISt5ctypeIcEERKT_PS3_.exit.i.i
  %14 = getelementptr inbounds nuw i8, ptr %9, i64 67
  %15 = load i8, ptr %14, align 1, !tbaa !21
  br label %_ZSt4endlIcSt11char_traitsIcEERSt13basic_ostreamIT_T0_ES6_.exit

16:                                               ; preds = %_ZSt13__check_facetISt5ctypeIcEERKT_PS3_.exit.i.i
  tail call void @_ZNKSt5ctypeIcE13_M_widen_initEv(ptr noundef nonnull align 8 dereferenceable(570) %9)
  %17 = load ptr, ptr %9, align 8, !tbaa !43
  %18 = getelementptr inbounds nuw i8, ptr %17, i64 48
  %19 = load ptr, ptr %18, align 8
  %20 = tail call noundef signext i8 %19(ptr noundef nonnull align 8 dereferenceable(570) %9, i8 noundef signext 10)
  br label %_ZSt4endlIcSt11char_traitsIcEERSt13basic_ostreamIT_T0_ES6_.exit

_ZSt4endlIcSt11char_traitsIcEERSt13basic_ostreamIT_T0_ES6_.exit: ; preds = %13, %16
  %.0.i.i.i = phi i8 [ %15, %13 ], [ %20, %16 ]
  %21 = tail call noundef nonnull align 8 dereferenceable(8) ptr @_ZNSo3putEc(ptr noundef nonnull align 8 dereferenceable(8) @_ZSt4cout, i8 noundef signext %.0.i.i.i)
  %22 = tail call noundef nonnull align 8 dereferenceable(8) ptr @_ZNSo5flushEv(ptr noundef nonnull align 8 dereferenceable(8) %21)
  ret void

.lr.ph:                                           ; preds = %1, %_ZSt4endlIcSt11char_traitsIcEERSt13basic_ostreamIT_T0_ES6_.exit12
  %.015 = phi i64 [ %52, %_ZSt4endlIcSt11char_traitsIcEERSt13basic_ostreamIT_T0_ES6_.exit12 ], [ 0, %1 ]
  %23 = tail call noundef nonnull align 8 dereferenceable(8) ptr @_ZSt16__ostream_insertIcSt11char_traitsIcEERSt13basic_ostreamIT_T0_ES6_PKS3_l(ptr noundef nonnull align 8 dereferenceable(8) @_ZSt4cout, ptr noundef nonnull @.str.73, i64 noundef 6)
  %24 = tail call noundef nonnull align 8 dereferenceable(8) ptr @_ZNSo9_M_insertImEERSoT_(ptr noundef nonnull align 8 dereferenceable(8) @_ZSt4cout, i64 noundef %.015)
  %25 = tail call noundef nonnull align 8 dereferenceable(8) ptr @_ZSt16__ostream_insertIcSt11char_traitsIcEERSt13basic_ostreamIT_T0_ES6_PKS3_l(ptr noundef nonnull align 8 dereferenceable(8) %24, ptr noundef nonnull @.str.74, i64 noundef 4)
  %.val6 = load ptr, ptr %2, align 8, !tbaa !200
  %26 = getelementptr inbounds nuw %"struct.jsonnet::internal::(anonymous namespace)::Frame", ptr %.val6, i64 %.015, i32 2
  %27 = tail call fastcc noundef nonnull align 8 dereferenceable(8) ptr @_ZN7jsonnet8internallsERSoRKNS0_13LocationRangeE(ptr noundef nonnull align 8 dereferenceable(8) %24, ptr noundef nonnull align 8 dereferenceable(64) %26)
  %28 = tail call noundef nonnull align 8 dereferenceable(8) ptr @_ZSt16__ostream_insertIcSt11char_traitsIcEERSt13basic_ostreamIT_T0_ES6_PKS3_l(ptr noundef nonnull align 8 dereferenceable(8) %24, ptr noundef nonnull @.str.75, i64 noundef 2)
  %.val7 = load ptr, ptr %2, align 8, !tbaa !200
  %29 = getelementptr inbounds nuw %"struct.jsonnet::internal::(anonymous namespace)::Frame", ptr %.val7, i64 %.015
  %30 = load i32, ptr %29, align 8, !tbaa !202
  %31 = tail call noundef nonnull align 8 dereferenceable(8) ptr @_ZNSolsEi(ptr noundef nonnull align 8 dereferenceable(8) %24, i32 noundef %30)
  %32 = tail call noundef nonnull align 8 dereferenceable(8) ptr @_ZSt16__ostream_insertIcSt11char_traitsIcEERSt13basic_ostreamIT_T0_ES6_PKS3_l(ptr noundef nonnull align 8 dereferenceable(8) %31, ptr noundef nonnull @.str.76, i64 noundef 1)
  %33 = load ptr, ptr %31, align 8, !tbaa !43
  %34 = getelementptr i8, ptr %33, i64 -24
  %35 = load i64, ptr %34, align 8
  %36 = getelementptr inbounds i8, ptr %31, i64 %35
  %37 = getelementptr inbounds nuw i8, ptr %36, i64 240
  %38 = load ptr, ptr %37, align 8, !tbaa !460
  %.not.i.i.i8 = icmp eq ptr %38, null
  br i1 %.not.i.i.i8, label %39, label %_ZSt13__check_facetISt5ctypeIcEERKT_PS3_.exit.i.i9

39:                                               ; preds = %.lr.ph
  tail call void @_ZSt16__throw_bad_castv() #41
  unreachable

_ZSt13__check_facetISt5ctypeIcEERKT_PS3_.exit.i.i9: ; preds = %.lr.ph
  %40 = getelementptr inbounds nuw i8, ptr %38, i64 56
  %41 = load i8, ptr %40, align 8, !tbaa !475
  %.not.i1.i.i10 = icmp eq i8 %41, 0
  br i1 %.not.i1.i.i10, label %45, label %42

42:                                               ; preds = %_ZSt13__check_facetISt5ctypeIcEERKT_PS3_.exit.i.i9
  %43 = getelementptr inbounds nuw i8, ptr %38, i64 67
  %44 = load i8, ptr %43, align 1, !tbaa !21
  br label %_ZSt4endlIcSt11char_traitsIcEERSt13basic_ostreamIT_T0_ES6_.exit12

45:                                               ; preds = %_ZSt13__check_facetISt5ctypeIcEERKT_PS3_.exit.i.i9
  tail call void @_ZNKSt5ctypeIcE13_M_widen_initEv(ptr noundef nonnull align 8 dereferenceable(570) %38)
  %46 = load ptr, ptr %38, align 8, !tbaa !43
  %47 = getelementptr inbounds nuw i8, ptr %46, i64 48
  %48 = load ptr, ptr %47, align 8
  %49 = tail call noundef signext i8 %48(ptr noundef nonnull align 8 dereferenceable(570) %38, i8 noundef signext 10)
  br label %_ZSt4endlIcSt11char_traitsIcEERSt13basic_ostreamIT_T0_ES6_.exit12

_ZSt4endlIcSt11char_traitsIcEERSt13basic_ostreamIT_T0_ES6_.exit12: ; preds = %42, %45
  %.0.i.i.i11 = phi i8 [ %44, %42 ], [ %49, %45 ]
  %50 = tail call noundef nonnull align 8 dereferenceable(8) ptr @_ZNSo3putEc(ptr noundef nonnull align 8 dereferenceable(8) %31, i8 noundef signext %.0.i.i.i11)
  %51 = tail call noundef nonnull align 8 dereferenceable(8) ptr @_ZNSo5flushEv(ptr noundef nonnull align 8 dereferenceable(8) %50)
  %52 = add nuw i64 %.015, 1
  %.val = load ptr, ptr %2, align 8, !tbaa !200
  %.val5 = load ptr, ptr %3, align 8, !tbaa !201
  %53 = ptrtoint ptr %.val5 to i64
  %54 = ptrtoint ptr %.val to i64
  %55 = sub i64 %53, %54
  %56 = sdiv exact i64 %55, 400
  %57 = icmp ult i64 %52, %56
  br i1 %57, label %.lr.ph, label %._crit_edge, !llvm.loop !567
}